; Function Attrs: nounwind uwtable
define hidden void @zif_posix_getuid(ptr nocapture noundef readonly %0, ptr nocapture noundef writeonly %1) #0 {
  %3 = getelementptr inbounds i8, ptr %0, i64 44
  %4 = load i32, ptr %3, align 4
  %.not = icmp eq i32 %4, 0
  br i1 %.not, label %6, label %5

5:                                                ; preds = %2
  tail call void @zend_wrong_parameters_none_error() #11
  br label %10

6:                                                ; preds = %2
  %7 = tail call i32 @getuid() #11
  %8 = zext i32 %7 to i64
  store i64 %8, ptr %1, align 8
  %9 = getelementptr inbounds i8, ptr %1, i64 8
  store i32 4, ptr %9, align 8
  br label %10

10:                                               ; preds = %6, %5
  ret void
}